target datalayout = "e-m:e-p270:32:32-p271:32:32-p272:64:64-i64:64-i128:128-f80:128-n8:16:32:64-S128"
target triple = "x86_64-pc-linux-gnu"

@.str.1 = private unnamed_addr constant [26 x i8] c"Invalid sample rate '%s'\0A\00", align 1

; Function Attrs: nounwind uwtable
define i32 @ff_parse_sample_rate(ptr noundef %0, ptr noundef %1, ptr noundef %2) #0 {
  %4 = alloca i32, align 4
  %5 = alloca ptr, align 8
  %6 = alloca ptr, align 8
  %7 = alloca ptr, align 8
  %8 = alloca ptr, align 8
  %9 = alloca double, align 8
  %10 = alloca i32, align 4
  store ptr %0, ptr %5, align 8, !tbaa !57
  store ptr %1, ptr %6, align 8, !tbaa !59
  store ptr %2, ptr %7, align 8, !tbaa !60
  call void @llvm.lifetime.start.p0(i64 8, ptr %8) #6
  call void @llvm.lifetime.start.p0(i64 8, ptr %9) #6
  %11 = load ptr, ptr %6, align 8, !tbaa !59
  %12 = call nsz double @av_strtod(ptr noundef %11, ptr noundef %8)
  store double %12, ptr %9, align 8, !tbaa !61
  %13 = load ptr, ptr %8, align 8, !tbaa !59
  %14 = load i8, ptr %13, align 1, !tbaa !35
  %15 = sext i8 %14 to i32
  %16 = icmp ne i32 %15, 0
  br i1 %16, label %29, label %17

17:                                               ; preds = %3
  %18 = load double, ptr %9, align 8, !tbaa !61
  %19 = fcmp nsz olt double %18, 1.000000e+00
  br i1 %19, label %29, label %20

20:                                               ; preds = %17
  %21 = load double, ptr %9, align 8, !tbaa !61
  %22 = fptosi double %21 to i32
  %23 = sitofp i32 %22 to double
  %24 = load double, ptr %9, align 8, !tbaa !61
  %25 = fcmp nsz une double %23, %24
  br i1 %25, label %29, label %26

26:                                               ; preds = %20
  %27 = load double, ptr %9, align 8, !tbaa !61
  %28 = fcmp nsz ogt double %27, 0x41DFFFFFFFC00000
  br i1 %28, label %29, label %32

29:                                               ; preds = %26, %20, %17, %3
  %30 = load ptr, ptr %7, align 8, !tbaa !60
  %31 = load ptr, ptr %6, align 8, !tbaa !59
  call void (ptr, i32, ptr, ...) @av_log(ptr noundef %30, i32 noundef 16, ptr noundef @.str.1, ptr noundef %31)
  store i32 -22, ptr %4, align 4
  store i32 1, ptr %10, align 4
  br label %36

32:                                               ; preds = %26
  %33 = load double, ptr %9, align 8, !tbaa !61
  %34 = fptosi double %33 to i32
  %35 = load ptr, ptr %5, align 8, !tbaa !57
  store i32 %34, ptr %35, align 4, !tbaa !9
  store i32 0, ptr %4, align 4
  store i32 1, ptr %10, align 4
  br label %36

36:                                               ; preds = %32, %29
  call void @llvm.lifetime.end.p0(i64 8, ptr %9) #6
  call void @llvm.lifetime.end.p0(i64 8, ptr %8) #6
  %37 = load i32, ptr %4, align 4
  ret i32 %37
}