; Function Attrs: nounwind uwtable
define range(i32 -22, 1) i32 @ff_parse_sample_rate(ptr noundef writeonly captures(none) %0, ptr noundef %1, ptr noundef %2) local_unnamed_addr #0 {
  %4 = alloca ptr, align 8
  call void @llvm.lifetime.start.p0(i64 8, ptr nonnull %4) #5
  %5 = call nsz double @av_strtod(ptr noundef %1, ptr noundef nonnull %4) #5
  %6 = load ptr, ptr %4, align 8, !tbaa !55
  %7 = load i8, ptr %6, align 1, !tbaa !32
  %8 = icmp ne i8 %7, 0
  %9 = fcmp nsz olt double %5, 1.000000e+00
  %or.cond = select i1 %8, i1 true, i1 %9
  br i1 %or.cond, label %15, label %10

10:                                               ; preds = %3
  %11 = fptosi double %5 to i32
  %12 = sitofp i32 %11 to double
  %13 = fcmp nsz une double %5, %12
  %14 = fcmp nsz ogt double %5, 0x41DFFFFFFFC00000
  %or.cond3 = or i1 %14, %13
  br i1 %or.cond3, label %15, label %16

15:                                               ; preds = %10, %3
  call void (ptr, i32, ptr, ...) @av_log(ptr noundef %2, i32 noundef 16, ptr noundef nonnull @.str.1, ptr noundef %1) #5
  br label %17

16:                                               ; preds = %10
  store i32 %11, ptr %0, align 4, !tbaa !45
  br label %17

17:                                               ; preds = %16, %15
  %.0 = phi i32 [ -22, %15 ], [ 0, %16 ]
  call void @llvm.lifetime.end.p0(i64 8, ptr nonnull %4) #5
  ret i32 %.0
}